; Function Attrs: nounwind uwtable
define nonnull ptr @l_Lean_Environment_isNamespace___boxed(ptr noundef %0, ptr noundef %1) local_unnamed_addr #0 {
  %3 = load ptr, ptr @l_Lean_namespacesExt, align 8, !tbaa !4
  %4 = getelementptr inbounds nuw i8, ptr %3, i64 8
  %5 = load ptr, ptr %4, align 8, !tbaa !4
  %6 = ptrtoint ptr %5 to i64
  %7 = and i64 %6, 1
  %.not.i4 = icmp eq i64 %7, 0
  br i1 %.not.i4, label %8, label %lean_inc.exit.i

8:                                                ; preds = %2
  %.val.i.i = load i32, ptr %5, align 4, !tbaa !8
  %9 = icmp sgt i32 %.val.i.i, 0
  br i1 %9, label %10, label %12, !prof !11

10:                                               ; preds = %8
  %11 = add nuw i32 %.val.i.i, 1
  store i32 %11, ptr %5, align 4, !tbaa !8
  br label %18

12:                                               ; preds = %8
  %.not.i10.i = icmp eq i32 %.val.i.i, 0
  br i1 %.not.i10.i, label %.thread11.i, label %15

.thread11.i:                                      ; preds = %12
  %13 = getelementptr inbounds nuw i8, ptr %5, i64 32
  %14 = load i8, ptr %13, align 1, !tbaa !15
  br label %l_Lean_Environment_isNamespace.exit

15:                                               ; preds = %12
  tail call void @lean_inc_ref_cold(ptr noundef nonnull %5) #3
  %.pr.i = load i32, ptr %5, align 4, !tbaa !8
  br label %18

lean_inc.exit.i:                                  ; preds = %2
  %16 = getelementptr inbounds nuw i8, ptr %5, i64 32
  %17 = load i8, ptr %16, align 1, !tbaa !15
  br label %l_Lean_Environment_isNamespace.exit

18:                                               ; preds = %15, %10
  %19 = phi i32 [ %.pr.i, %15 ], [ %11, %10 ]
  %20 = getelementptr inbounds nuw i8, ptr %5, i64 32
  %21 = load i8, ptr %20, align 1, !tbaa !15
  %22 = icmp sgt i32 %19, 1
  br i1 %22, label %23, label %25, !prof !16

23:                                               ; preds = %18
  %24 = add nsw i32 %19, -1
  store i32 %24, ptr %5, align 4, !tbaa !8
  br label %l_Lean_Environment_isNamespace.exit

25:                                               ; preds = %18
  %.not.i.i = icmp eq i32 %19, 0
  br i1 %.not.i.i, label %l_Lean_Environment_isNamespace.exit, label %26

26:                                               ; preds = %25
  tail call void @lean_dec_ref_cold(ptr noundef nonnull %5) #3
  br label %l_Lean_Environment_isNamespace.exit

l_Lean_Environment_isNamespace.exit:              ; preds = %.thread11.i, %lean_inc.exit.i, %23, %25, %26
  %27 = phi i8 [ %17, %lean_inc.exit.i ], [ %21, %23 ], [ %21, %25 ], [ %21, %26 ], [ %14, %.thread11.i ]
  %28 = load ptr, ptr @l_Lean_NameSSet_instInhabited, align 8, !tbaa !4
  %29 = load ptr, ptr @l_Lean_Environment_registerNamespace___closed__1, align 8, !tbaa !4
  %30 = tail call ptr @l_Lean_SimplePersistentEnvExtension_getState___rarg(ptr noundef %28, ptr noundef %29, ptr noundef %0, i8 noundef zeroext %27) #3
  %31 = tail call zeroext i8 @l_Lean_SMap_contains___at_Lean_NameSSet_contains___spec__1(ptr noundef %30, ptr noundef %1) #3
  %32 = ptrtoint ptr %1 to i64
  %33 = and i64 %32, 1
  %.not = icmp eq i64 %33, 0
  br i1 %.not, label %34, label %lean_dec.exit

34:                                               ; preds = %l_Lean_Environment_isNamespace.exit
  %35 = load i32, ptr %1, align 4, !tbaa !8
  %36 = icmp sgt i32 %35, 1
  br i1 %36, label %37, label %39, !prof !11

37:                                               ; preds = %34
  %38 = add nsw i32 %35, -1
  store i32 %38, ptr %1, align 4, !tbaa !8
  br label %lean_dec.exit

39:                                               ; preds = %34
  %.not.i = icmp eq i32 %35, 0
  br i1 %.not.i, label %lean_dec.exit, label %40

40:                                               ; preds = %39
  tail call void @lean_dec_ref_cold(ptr noundef nonnull %1) #3
  br label %lean_dec.exit

lean_dec.exit:                                    ; preds = %40, %39, %37, %l_Lean_Environment_isNamespace.exit
  %41 = zext i8 %31 to i64
  %42 = shl nuw nsw i64 %41, 1
  %43 = or disjoint i64 %42, 1
  %44 = inttoptr i64 %43 to ptr
  ret ptr %44
}